target datalayout = "e-m:e-p270:32:32-p271:32:32-p272:64:64-i64:64-i128:128-f80:128-n8:16:32:64-S128"
target triple = "x86_64-pc-linux-gnu"

%struct.strbuf = type { i64, i64, ptr }
%struct.fetch_pack_args = type { ptr, i32, i32, ptr, ptr, %struct.list_objects_filter_options, ptr, ptr, i32 }
%struct.list_objects_filter_options = type { %struct.strbuf, i32, i8, ptr, i64, i64, i32, i64, i64, ptr }

@.str.6 = private unnamed_addr constant [13 x i8] c"fetch-pack.c\00", align 1
@the_repository = external global ptr, align 8
@.str.31 = private unnamed_addr constant [1 x i8] zeroinitializer, align 1
@git_gettext_enabled = external global i32, align 4
@.str.33 = private unnamed_addr constant [6 x i8] c"fetch\00", align 1
@.str.78 = private unnamed_addr constant [23 x i8] c"Server supports filter\00", align 1
@.str.79 = private unnamed_addr constant [10 x i8] c"filter %s\00", align 1
@.str.80 = private unnamed_addr constant [17 x i8] c"filter/effective\00", align 1
@.str.81 = private unnamed_addr constant [45 x i8] c"filtering not recognized by server, ignoring\00", align 1
@.str.82 = private unnamed_addr constant [19 x i8] c"filter/unsupported\00", align 1
@.str.83 = private unnamed_addr constant [12 x i8] c"filter/none\00", align 1

; Function Attrs: inlinehint nounwind uwtable
define internal ptr @_(ptr noundef %0) #5 {
  %2 = alloca ptr, align 8
  %3 = alloca ptr, align 8
  store ptr %0, ptr %3, align 8, !tbaa !4
  %4 = load ptr, ptr %3, align 8, !tbaa !4
  %5 = load i8, ptr %4, align 1, !tbaa !16
  %6 = icmp ne i8 %5, 0
  br i1 %6, label %8, label %7

7:                                                ; preds = %1
  store ptr @.str.31, ptr %2, align 8
  br label %16

8:                                                ; preds = %1
  %9 = load i32, ptr @git_gettext_enabled, align 4, !tbaa !19
  %10 = icmp ne i32 %9, 0
  br i1 %10, label %13, label %11

11:                                               ; preds = %8
  %12 = load ptr, ptr %3, align 8, !tbaa !4
  store ptr %12, ptr %2, align 8
  br label %16

13:                                               ; preds = %8
  %14 = load ptr, ptr %3, align 8, !tbaa !4
  %15 = call ptr @dcgettext(ptr noundef null, ptr noundef %14, i32 noundef 5) #11
  store ptr %15, ptr %2, align 8
  br label %16

16:                                               ; preds = %13, %11, %7
  %17 = load ptr, ptr %2, align 8
  ret ptr %17
}

; Function Attrs: nounwind uwtable
define internal void @send_filter(ptr noundef %0, ptr noundef %1, i32 noundef %2) #0 {
  %4 = alloca ptr, align 8
  %5 = alloca ptr, align 8
  %6 = alloca i32, align 4
  %7 = alloca ptr, align 8
  store ptr %0, ptr %4, align 8, !tbaa !21
  store ptr %1, ptr %5, align 8, !tbaa !9
  store i32 %2, ptr %6, align 4, !tbaa !19
  %8 = load ptr, ptr %4, align 8, !tbaa !21
  %9 = getelementptr inbounds nuw %struct.fetch_pack_args, ptr %8, i32 0, i32 5
  %10 = getelementptr inbounds nuw %struct.list_objects_filter_options, ptr %9, i32 0, i32 1
  %11 = load i32, ptr %10, align 8, !tbaa !97
  %12 = icmp ne i32 %11, 0
  br i1 %12, label %13, label %30

13:                                               ; preds = %3
  call void @llvm.lifetime.start.p0(i64 8, ptr %7) #11
  %14 = load ptr, ptr %4, align 8, !tbaa !21
  %15 = getelementptr inbounds nuw %struct.fetch_pack_args, ptr %14, i32 0, i32 5
  %16 = call ptr @expand_list_objects_filter_spec(ptr noundef %15)
  store ptr %16, ptr %7, align 8, !tbaa !4
  %17 = load i32, ptr %6, align 4, !tbaa !19
  %18 = icmp ne i32 %17, 0
  br i1 %18, label %19, label %26

19:                                               ; preds = %13
  %20 = load ptr, ptr %4, align 8, !tbaa !21
  %21 = call ptr @_(ptr noundef @.str.78)
  call void (ptr, ptr, ...) @print_verbose(ptr noundef %20, ptr noundef %21)
  %22 = load ptr, ptr %5, align 8, !tbaa !9
  %23 = load ptr, ptr %7, align 8, !tbaa !4
  call void (ptr, ptr, ...) @packet_buf_write(ptr noundef %22, ptr noundef @.str.79, ptr noundef %23)
  %24 = load ptr, ptr @the_repository, align 8, !tbaa !36
  %25 = load ptr, ptr %7, align 8, !tbaa !4
  call void @trace2_data_string_fl(ptr noundef @.str.6, i32 noundef 320, ptr noundef @.str.33, ptr noundef %24, ptr noundef @.str.80, ptr noundef %25)
  br label %29

26:                                               ; preds = %13
  call void (ptr, ...) @warning(ptr noundef @.str.81)
  %27 = load ptr, ptr @the_repository, align 8, !tbaa !36
  %28 = load ptr, ptr %7, align 8, !tbaa !4
  call void @trace2_data_string_fl(ptr noundef @.str.6, i32 noundef 324, ptr noundef @.str.33, ptr noundef %27, ptr noundef @.str.82, ptr noundef %28)
  br label %29

29:                                               ; preds = %26, %19
  call void @llvm.lifetime.end.p0(i64 8, ptr %7) #11
  br label %32

30:                                               ; preds = %3
  %31 = load ptr, ptr @the_repository, align 8, !tbaa !36
  call void @trace2_data_string_fl(ptr noundef @.str.6, i32 noundef 328, ptr noundef @.str.33, ptr noundef %31, ptr noundef @.str.83, ptr noundef @.str.31)
  br label %32

32:                                               ; preds = %30, %29
  ret void
}