; Function Attrs: nounwind uwtable
define internal fastcc void @send_filter(ptr noundef %0, ptr noundef nonnull %1, i32 noundef %2) unnamed_addr #0 {
  %4 = getelementptr inbounds nuw i8, ptr %0, i64 56
  %5 = load i32, ptr %4, align 8, !tbaa !125
  %.not = icmp eq i32 %5, 0
  br i1 %.not, label %16, label %6

6:                                                ; preds = %3
  %7 = getelementptr inbounds nuw i8, ptr %0, i64 32
  %8 = tail call ptr @expand_list_objects_filter_spec(ptr noundef nonnull %7) #20
  %.not7 = icmp eq i32 %2, 0
  br i1 %.not7, label %14, label %9

9:                                                ; preds = %6
  %10 = load i32, ptr @git_gettext_enabled, align 4, !tbaa !15
  %.not4.i = icmp eq i32 %10, 0
  br i1 %.not4.i, label %_.exit, label %11

11:                                               ; preds = %9
  %12 = tail call ptr @dcgettext(ptr noundef null, ptr noundef nonnull @.str.78, i32 noundef 5) #20
  br label %_.exit

_.exit:                                           ; preds = %9, %11
  %.0.i = phi ptr [ %12, %11 ], [ @.str.78, %9 ]
  tail call void (ptr, ptr, ...) @print_verbose(ptr noundef nonnull %0, ptr noundef %.0.i)
  tail call void (ptr, ptr, ...) @packet_buf_write(ptr noundef nonnull %1, ptr noundef nonnull @.str.79, ptr noundef %8) #20
  %13 = load ptr, ptr @the_repository, align 8, !tbaa !17
  tail call void @trace2_data_string_fl(ptr noundef nonnull @.str.6, i32 noundef 320, ptr noundef nonnull @.str.33, ptr noundef %13, ptr noundef nonnull @.str.80, ptr noundef %8) #20
  br label %18

14:                                               ; preds = %6
  tail call void (ptr, ...) @warning(ptr noundef nonnull @.str.81) #20
  %15 = load ptr, ptr @the_repository, align 8, !tbaa !17
  tail call void @trace2_data_string_fl(ptr noundef nonnull @.str.6, i32 noundef 324, ptr noundef nonnull @.str.33, ptr noundef %15, ptr noundef nonnull @.str.82, ptr noundef %8) #20
  br label %18

16:                                               ; preds = %3
  %17 = load ptr, ptr @the_repository, align 8, !tbaa !17
  tail call void @trace2_data_string_fl(ptr noundef nonnull @.str.6, i32 noundef 328, ptr noundef nonnull @.str.33, ptr noundef %17, ptr noundef nonnull @.str.83, ptr noundef nonnull @.str.31) #20
  br label %18

18:                                               ; preds = %_.exit, %14, %16
  ret void
}